target datalayout = "e-m:e-p270:32:32-p271:32:32-p272:64:64-i64:64-i128:128-f80:128-n8:16:32:64-S128"
target triple = "x86_64-pc-linux-gnu"

@sane_ctype = external constant [256 x i8], align 16

; Function Attrs: nounwind uwtable
define dso_local i32 @is_urlschemechar(i32 noundef %0, i32 noundef %1) #0 {
  %3 = alloca i32, align 4
  %4 = alloca i32, align 4
  %5 = alloca i32, align 4
  %6 = alloca i32, align 4
  store i32 %0, ptr %3, align 4, !tbaa !4
  store i32 %1, ptr %4, align 4, !tbaa !4
  call void @llvm.lifetime.start.p0(i64 4, ptr %5) #7
  call void @llvm.lifetime.start.p0(i64 4, ptr %6) #7
  %7 = load i32, ptr %4, align 4, !tbaa !4
  %8 = icmp sgt i32 %7, 0
  br i1 %8, label %9, label %18

9:                                                ; preds = %2
  %10 = load i32, ptr %4, align 4, !tbaa !4
  %11 = trunc i32 %10 to i8
  %12 = zext i8 %11 to i64
  %13 = getelementptr inbounds nuw [256 x i8], ptr @sane_ctype, i64 0, i64 %12
  %14 = load i8, ptr %13, align 1, !tbaa !8
  %15 = zext i8 %14 to i32
  %16 = and i32 %15, 6
  %17 = icmp ne i32 %16, 0
  br label %18

18:                                               ; preds = %9, %2
  %19 = phi i1 [ false, %2 ], [ %17, %9 ]
  %20 = zext i1 %19 to i32
  store i32 %20, ptr %5, align 4, !tbaa !4
  %21 = load i32, ptr %4, align 4, !tbaa !4
  %22 = icmp eq i32 %21, 43
  br i1 %22, label %29, label %23

23:                                               ; preds = %18
  %24 = load i32, ptr %4, align 4, !tbaa !4
  %25 = icmp eq i32 %24, 45
  br i1 %25, label %29, label %26

26:                                               ; preds = %23
  %27 = load i32, ptr %4, align 4, !tbaa !4
  %28 = icmp eq i32 %27, 46
  br label %29

29:                                               ; preds = %26, %23, %18
  %30 = phi i1 [ true, %23 ], [ true, %18 ], [ %28, %26 ]
  %31 = zext i1 %30 to i32
  store i32 %31, ptr %6, align 4, !tbaa !4
  %32 = load i32, ptr %5, align 4, !tbaa !4
  %33 = icmp ne i32 %32, 0
  br i1 %33, label %42, label %34

34:                                               ; preds = %29
  %35 = load i32, ptr %3, align 4, !tbaa !4
  %36 = icmp ne i32 %35, 0
  br i1 %36, label %40, label %37

37:                                               ; preds = %34
  %38 = load i32, ptr %6, align 4, !tbaa !4
  %39 = icmp ne i32 %38, 0
  br label %40

40:                                               ; preds = %37, %34
  %41 = phi i1 [ false, %34 ], [ %39, %37 ]
  br label %42

42:                                               ; preds = %40, %29
  %43 = phi i1 [ true, %29 ], [ %41, %40 ]
  %44 = zext i1 %43 to i32
  call void @llvm.lifetime.end.p0(i64 4, ptr %6) #7
  call void @llvm.lifetime.end.p0(i64 4, ptr %5) #7
  ret i32 %44
}

; Function Attrs: nounwind uwtable
define dso_local i32 @is_url(ptr noundef %0) #0 {
  %2 = alloca i32, align 4
  %3 = alloca ptr, align 8
  store ptr %0, ptr %3, align 8, !tbaa !9
  %4 = load ptr, ptr %3, align 8, !tbaa !9
  %5 = icmp ne ptr %4, null
  br i1 %5, label %6, label %13

6:                                                ; preds = %1
  %7 = load ptr, ptr %3, align 8, !tbaa !9
  %8 = getelementptr inbounds nuw i8, ptr %7, i32 1
  store ptr %8, ptr %3, align 8, !tbaa !9
  %9 = load i8, ptr %7, align 1, !tbaa !8
  %10 = sext i8 %9 to i32
  %11 = call i32 @is_urlschemechar(i32 noundef 1, i32 noundef %10)
  %12 = icmp ne i32 %11, 0
  br i1 %12, label %14, label %13

13:                                               ; preds = %6, %1
  store i32 0, ptr %2, align 4
  br label %57

14:                                               ; preds = %6
  br label %15

15:                                               ; preds = %35, %14
  %16 = load ptr, ptr %3, align 8, !tbaa !9
  %17 = load i8, ptr %16, align 1, !tbaa !8
  %18 = sext i8 %17 to i32
  %19 = icmp ne i32 %18, 0
  br i1 %19, label %20, label %25

20:                                               ; preds = %15
  %21 = load ptr, ptr %3, align 8, !tbaa !9
  %22 = load i8, ptr %21, align 1, !tbaa !8
  %23 = sext i8 %22 to i32
  %24 = icmp ne i32 %23, 58
  br label %25

25:                                               ; preds = %20, %15
  %26 = phi i1 [ false, %15 ], [ %24, %20 ]
  br i1 %26, label %27, label %36

27:                                               ; preds = %25
  %28 = load ptr, ptr %3, align 8, !tbaa !9
  %29 = getelementptr inbounds nuw i8, ptr %28, i32 1
  store ptr %29, ptr %3, align 8, !tbaa !9
  %30 = load i8, ptr %28, align 1, !tbaa !8
  %31 = sext i8 %30 to i32
  %32 = call i32 @is_urlschemechar(i32 noundef 0, i32 noundef %31)
  %33 = icmp ne i32 %32, 0
  br i1 %33, label %35, label %34

34:                                               ; preds = %27
  store i32 0, ptr %2, align 4
  br label %57

35:                                               ; preds = %27
  br label %15, !llvm.loop !12

36:                                               ; preds = %25
  %37 = load ptr, ptr %3, align 8, !tbaa !9
  %38 = getelementptr inbounds i8, ptr %37, i64 0
  %39 = load i8, ptr %38, align 1, !tbaa !8
  %40 = sext i8 %39 to i32
  %41 = icmp eq i32 %40, 58
  br i1 %41, label %42, label %54

42:                                               ; preds = %36
  %43 = load ptr, ptr %3, align 8, !tbaa !9
  %44 = getelementptr inbounds i8, ptr %43, i64 1
  %45 = load i8, ptr %44, align 1, !tbaa !8
  %46 = sext i8 %45 to i32
  %47 = icmp eq i32 %46, 47
  br i1 %47, label %48, label %54

48:                                               ; preds = %42
  %49 = load ptr, ptr %3, align 8, !tbaa !9
  %50 = getelementptr inbounds i8, ptr %49, i64 2
  %51 = load i8, ptr %50, align 1, !tbaa !8
  %52 = sext i8 %51 to i32
  %53 = icmp eq i32 %52, 47
  br label %54

54:                                               ; preds = %48, %42, %36
  %55 = phi i1 [ false, %42 ], [ false, %36 ], [ %53, %48 ]
  %56 = zext i1 %55 to i32
  store i32 %56, ptr %2, align 4
  br label %57

57:                                               ; preds = %54, %34, %13
  %58 = load i32, ptr %2, align 4
  ret i32 %58
}