; Function Attrs: nofree norecurse nosync nounwind memory(argmem: read) uwtable
define dso_local range(i32 0, 2) i32 @is_url(ptr noundef readonly %0) local_unnamed_addr #2 {
  %.not = icmp eq ptr %0, null
  br i1 %.not, label %.critedge, label %2

2:                                                ; preds = %1
  %3 = load i8, ptr %0, align 1, !tbaa !4
  %4 = icmp sgt i8 %3, 0
  br i1 %4, label %is_urlschemechar.exit, label %.critedge

is_urlschemechar.exit:                            ; preds = %2
  %5 = zext nneg i8 %3 to i64
  %6 = getelementptr inbounds nuw [256 x i8], ptr @sane_ctype, i64 0, i64 %5
  %7 = load i8, ptr %6, align 1, !tbaa !4
  %8 = and i8 %7, 6
  %.not16 = icmp eq i8 %8, 0
  br i1 %.not16, label %.critedge, label %.preheader

.preheader:                                       ; preds = %is_urlschemechar.exit, %is_urlschemechar.exit15
  %.pn = phi ptr [ %.0, %is_urlschemechar.exit15 ], [ %0, %is_urlschemechar.exit ]
  %.0 = getelementptr inbounds nuw i8, ptr %.pn, i64 1
  %9 = load i8, ptr %.0, align 1, !tbaa !4
  %10 = sext i8 %9 to i64
  switch i8 %9, label %11 [
    i8 58, label %21
    i8 0, label %.critedge
  ]

11:                                               ; preds = %.preheader
  %12 = icmp sgt i8 %9, 0
  br i1 %12, label %13, label %is_urlschemechar.exit15

13:                                               ; preds = %11
  %14 = getelementptr inbounds nuw [256 x i8], ptr @sane_ctype, i64 0, i64 %10
  %15 = load i8, ptr %14, align 1, !tbaa !4
  %16 = and i8 %15, 6
  %17 = icmp ne i8 %16, 0
  br label %is_urlschemechar.exit15

is_urlschemechar.exit15:                          ; preds = %13, %11
  %18 = phi i1 [ false, %11 ], [ %17, %13 ]
  %19 = icmp ult i8 %9, 47
  %switch.cast = zext nneg i8 %9 to i47
  %switch.downshift = lshr i47 -26388279066624, %switch.cast
  %switch.masked = trunc i47 %switch.downshift to i1
  %20 = select i1 %19, i1 %switch.masked, i1 false
  %narrow.i = or i1 %18, %20
  br i1 %narrow.i, label %.preheader, label %.critedge, !llvm.loop !7

21:                                               ; preds = %.preheader
  %22 = getelementptr inbounds nuw i8, ptr %.pn, i64 2
  %23 = load i8, ptr %22, align 1, !tbaa !4
  %24 = icmp eq i8 %23, 47
  br i1 %24, label %25, label %.critedge

25:                                               ; preds = %21
  %26 = getelementptr inbounds nuw i8, ptr %.pn, i64 3
  %27 = load i8, ptr %26, align 1, !tbaa !4
  %28 = icmp eq i8 %27, 47
  %29 = zext i1 %28 to i32
  br label %.critedge

.critedge:                                        ; preds = %.preheader, %is_urlschemechar.exit15, %2, %21, %25, %1, %is_urlschemechar.exit
  %.08 = phi i32 [ 0, %is_urlschemechar.exit ], [ 0, %1 ], [ 0, %21 ], [ %29, %25 ], [ 0, %2 ], [ 0, %is_urlschemechar.exit15 ], [ 0, %.preheader ]
  ret i32 %.08
}